ccopy_reg
_reconstructor
p0
(ctree
GXP
p1
c__builtin__
object
p2
Ntp3
Rp4
(dp5
Vname
p6
Vroot
p7
sVxp
p8
I100
sVcached_xp
p9
I1310
sVboys
p10
(lp11
g0
(g1
g2
Ntp12
Rp13
(dp14
g6
Vmeditation
p15
sg8
I30
sg9
I60
sg10
(lp16
g0
(g1
g2
Ntp17
Rp18
(dp19
g6
Vart
p20
sg8
I20
sg9
I20
sg10
(lp21
sVparent
p22
g0
(g1
g2
Ntp23
Rp24
g14
bsVlevel
p25
I2
sbag0
(g1
g2
Ntp26
Rp27
(dp28
g6
Vmusic
p29
sg8
I10
sg9
I10
sg10
(lp30
sg22
g24
sg25
I2
sbasg22
g0
(g1
g2
Ntp31
Rp32
g5
bsg25
I1
sbag0
(g1
g2
Ntp33
Rp34
(dp35
g6
Vtechnical
p36
sg8
I100
sg9
I1150
sg10
(lp37
g0
(g1
g2
Ntp38
Rp39
(dp40
g6
Vengineering
p41
sg8
I200
sg9
I200
sg10
(lp42
sg22
g0
(g1
g2
Ntp43
Rp44
g35
bsg25
I2
sbag0
(g1
g2
Ntp45
Rp46
(dp47
g6
Vmaths
p48
sg8
I400
sg9
I400
sg10
(lp49
sg22
g44
sg25
I2
sbag0
(g1
g2
Ntp50
Rp51
(dp52
g6
Vphysics
p53
sg8
I300
sg9
I300
sg10
(lp54
sg22
g44
sg25
I2
sbag0
(g1
g2
Ntp55
Rp56
(dp57
g6
Vprogramming
p58
sg8
I100
sg9
I150
sg10
(lp59
g0
(g1
g2
Ntp60
Rp61
(dp62
g6
VC++
p63
sg8
I50
sg9
I50
sg10
(lp64
sg22
g0
(g1
g2
Ntp65
Rp66
g57
bsg25
I3
sbasg22
g44
sg25
I2
sbasg22
g32
sg25
I1
sbasg22
Nsg25
I0
sb.